; ModuleID = 'bench/rocksdb/original/data_structure.ll'
source_filename = "bench/rocksdb/original/data_structure.ll"
target datalayout = "e-m:e-p270:32:32-p271:32:32-p272:64:64-i64:64-i128:128-f80:128-n8:16:32:64-S128"
target triple = "x86_64-pc-linux-gnu"

; Function Attrs: mustprogress nofree norecurse nosync nounwind willreturn memory(none) uwtable
define noundef range(i32 0, 64) i32 @_ZN7rocksdb6detail36CountTrailingZeroBitsForSmallEnumSetEm(i64 noundef %0) local_unnamed_addr #0 {
  %2 = tail call range(i64 0, 65) i64 @llvm.cttz.i64(i64 %0, i1 true)
  %3 = trunc nuw nsw i64 %2 to i32
  ret i32 %3
}

; Function Attrs: mustprogress nocallback nofree nosync nounwind speculatable willreturn memory(none)
declare i64 @llvm.cttz.i64(i64, i1 immarg) #1


!llvm.module.flags = !{!0, !1, !2, !3}

!0 = !{i32 1, !"wchar_size", i32 4}
!1 = !{i32 8, !"PIC Level", i32 2}
!2 = !{i32 7, !"uwtable", i32 2}
!3 = !{i32 7, !"frame-pointer", i32 1}
